target datalayout = "e-m:e-p270:32:32-p271:32:32-p272:64:64-i64:64-i128:128-f80:128-n8:16:32:64-S128"
target triple = "x86_64-pc-linux-gnu"

%struct.data = type { %struct.prio_queue, i32 }
%struct.prio_queue = type { ptr, i64, ptr, i64, i64, ptr }
%struct.commit = type { %struct.object, i64, ptr, ptr, i32 }
%struct.object = type { i32, %struct.object_id }
%struct.object_id = type { [32 x i8], i32 }
%struct.commit_list = type { ptr, ptr }

; Function Attrs: nounwind uwtable
define internal void @mark_common(ptr noundef %0, ptr noundef %1) #0 {
  %3 = alloca ptr, align 8
  %4 = alloca ptr, align 8
  %5 = alloca %struct.prio_queue, align 8
  %6 = alloca ptr, align 8
  %7 = alloca i32, align 4
  %8 = alloca ptr, align 8
  store ptr %0, ptr %3, align 8, !tbaa !15
  store ptr %1, ptr %4, align 8, !tbaa !27
  call void @llvm.lifetime.start.p0(i64 48, ptr %5) #7
  call void @llvm.memset.p0.i64(ptr align 8 %5, i8 0, i64 48, i1 false)
  call void @llvm.lifetime.start.p0(i64 8, ptr %6) #7
  %9 = load ptr, ptr %4, align 8, !tbaa !27
  %10 = getelementptr inbounds nuw %struct.commit, ptr %9, i32 0, i32 0
  %11 = load i32, ptr %10, align 8
  %12 = lshr i32 %11, 4
  %13 = and i32 %12, 4
  %14 = icmp ne i32 %13, 0
  br i1 %14, label %15, label %16

15:                                               ; preds = %2
  store i32 1, ptr %7, align 4
  br label %101

16:                                               ; preds = %2
  %17 = load ptr, ptr %4, align 8, !tbaa !27
  call void @prio_queue_put(ptr noundef %5, ptr noundef %17)
  %18 = load ptr, ptr %4, align 8, !tbaa !27
  %19 = getelementptr inbounds nuw %struct.commit, ptr %18, i32 0, i32 0
  %20 = load i32, ptr %19, align 8
  %21 = lshr i32 %20, 4
  %22 = or i32 %21, 4
  %23 = load i32, ptr %19, align 8
  %24 = and i32 %22, 268435455
  %25 = shl i32 %24, 4
  %26 = and i32 %23, 15
  %27 = or i32 %26, %25
  store i32 %27, ptr %19, align 8
  br label %28

28:                                               ; preds = %99, %97, %16
  %29 = call ptr @prio_queue_get(ptr noundef %5)
  store ptr %29, ptr %6, align 8, !tbaa !27
  %30 = icmp ne ptr %29, null
  br i1 %30, label %31, label %100

31:                                               ; preds = %28
  call void @llvm.lifetime.start.p0(i64 8, ptr %8) #7
  %32 = load ptr, ptr %6, align 8, !tbaa !27
  %33 = getelementptr inbounds nuw %struct.commit, ptr %32, i32 0, i32 0
  %34 = load i32, ptr %33, align 8
  %35 = lshr i32 %34, 4
  %36 = and i32 %35, 32
  %37 = icmp ne i32 %36, 0
  br i1 %37, label %43, label %38

38:                                               ; preds = %31
  %39 = load ptr, ptr %3, align 8, !tbaa !15
  %40 = getelementptr inbounds nuw %struct.data, ptr %39, i32 0, i32 1
  %41 = load i32, ptr %40, align 8, !tbaa !48
  %42 = add nsw i32 %41, -1
  store i32 %42, ptr %40, align 8, !tbaa !48
  br label %43

43:                                               ; preds = %38, %31
  %44 = load ptr, ptr %6, align 8, !tbaa !27
  %45 = getelementptr inbounds nuw %struct.commit, ptr %44, i32 0, i32 0
  %46 = load i32, ptr %45, align 8
  %47 = and i32 %46, 1
  %48 = icmp ne i32 %47, 0
  br i1 %48, label %50, label %49

49:                                               ; preds = %43
  store i32 2, ptr %7, align 4
  br label %97, !llvm.loop !65

50:                                               ; preds = %43
  %51 = load ptr, ptr %6, align 8, !tbaa !27
  %52 = getelementptr inbounds nuw %struct.commit, ptr %51, i32 0, i32 2
  %53 = load ptr, ptr %52, align 8, !tbaa !50
  store ptr %53, ptr %8, align 8, !tbaa !56
  br label %54

54:                                               ; preds = %92, %50
  %55 = load ptr, ptr %8, align 8, !tbaa !56
  %56 = icmp ne ptr %55, null
  br i1 %56, label %57, label %96

57:                                               ; preds = %54
  %58 = load ptr, ptr %8, align 8, !tbaa !56
  %59 = getelementptr inbounds nuw %struct.commit_list, ptr %58, i32 0, i32 0
  %60 = load ptr, ptr %59, align 8, !tbaa !57
  %61 = getelementptr inbounds nuw %struct.commit, ptr %60, i32 0, i32 0
  %62 = load i32, ptr %61, align 8
  %63 = lshr i32 %62, 4
  %64 = and i32 %63, 16
  %65 = icmp ne i32 %64, 0
  br i1 %65, label %66, label %75

66:                                               ; preds = %57
  %67 = load ptr, ptr %8, align 8, !tbaa !56
  %68 = getelementptr inbounds nuw %struct.commit_list, ptr %67, i32 0, i32 0
  %69 = load ptr, ptr %68, align 8, !tbaa !57
  %70 = getelementptr inbounds nuw %struct.commit, ptr %69, i32 0, i32 0
  %71 = load i32, ptr %70, align 8
  %72 = lshr i32 %71, 4
  %73 = and i32 %72, 4
  %74 = icmp ne i32 %73, 0
  br i1 %74, label %75, label %76

75:                                               ; preds = %66, %57
  br label %92

76:                                               ; preds = %66
  %77 = load ptr, ptr %8, align 8, !tbaa !56
  %78 = getelementptr inbounds nuw %struct.commit_list, ptr %77, i32 0, i32 0
  %79 = load ptr, ptr %78, align 8, !tbaa !57
  %80 = getelementptr inbounds nuw %struct.commit, ptr %79, i32 0, i32 0
  %81 = load i32, ptr %80, align 8
  %82 = lshr i32 %81, 4
  %83 = or i32 %82, 4
  %84 = load i32, ptr %80, align 8
  %85 = and i32 %83, 268435455
  %86 = shl i32 %85, 4
  %87 = and i32 %84, 15
  %88 = or i32 %87, %86
  store i32 %88, ptr %80, align 8
  %89 = load ptr, ptr %8, align 8, !tbaa !56
  %90 = getelementptr inbounds nuw %struct.commit_list, ptr %89, i32 0, i32 0
  %91 = load ptr, ptr %90, align 8, !tbaa !57
  call void @prio_queue_put(ptr noundef %5, ptr noundef %91)
  br label %92

92:                                               ; preds = %76, %75
  %93 = load ptr, ptr %8, align 8, !tbaa !56
  %94 = getelementptr inbounds nuw %struct.commit_list, ptr %93, i32 0, i32 1
  %95 = load ptr, ptr %94, align 8, !tbaa !59
  store ptr %95, ptr %8, align 8, !tbaa !56
  br label %54, !llvm.loop !66

96:                                               ; preds = %54
  store i32 0, ptr %7, align 4
  br label %97

97:                                               ; preds = %96, %49
  call void @llvm.lifetime.end.p0(i64 8, ptr %8) #7
  %98 = load i32, ptr %7, align 4
  switch i32 %98, label %104 [
    i32 0, label %99
    i32 2, label %28
  ]

99:                                               ; preds = %97
  br label %28, !llvm.loop !65

100:                                              ; preds = %28
  call void @clear_prio_queue(ptr noundef %5)
  store i32 0, ptr %7, align 4
  br label %101

101:                                              ; preds = %100, %15
  call void @llvm.lifetime.end.p0(i64 8, ptr %6) #7
  call void @llvm.lifetime.end.p0(i64 48, ptr %5) #7
  %102 = load i32, ptr %7, align 4
  switch i32 %102, label %104 [
    i32 0, label %103
    i32 1, label %103
  ]

103:                                              ; preds = %101, %101
  ret void

104:                                              ; preds = %101, %97
  unreachable
}