; Function Attrs: nounwind uwtable
define internal fastcc void @mark_common(ptr noundef captures(none) %0, ptr noundef %1) unnamed_addr #0 {
  %3 = alloca %struct.prio_queue, align 8
  call void @llvm.lifetime.start.p0(i64 48, ptr nonnull %3) #6
  call void @llvm.memset.p0.i64(ptr noundef nonnull align 8 dereferenceable(48) %3, i8 0, i64 48, i1 false)
  %4 = load i32, ptr %1, align 8
  %5 = and i32 %4, 64
  %.not = icmp eq i32 %5, 0
  br i1 %.not, label %6, label %32

6:                                                ; preds = %2
  call void @prio_queue_put(ptr noundef nonnull %3, ptr noundef nonnull %1) #6
  %7 = load i32, ptr %1, align 8
  %8 = or i32 %7, 64
  store i32 %8, ptr %1, align 8
  %9 = call ptr @prio_queue_get(ptr noundef nonnull %3) #6
  %.not1423 = icmp eq ptr %9, null
  br i1 %.not1423, label %._crit_edge, label %.lr.ph24

.lr.ph24:                                         ; preds = %6
  %10 = getelementptr inbounds nuw i8, ptr %0, i64 48
  br label %11

11:                                               ; preds = %.lr.ph24, %.loopexit
  %12 = phi ptr [ %9, %.lr.ph24 ], [ %31, %.loopexit ]
  %13 = load i32, ptr %12, align 8
  %14 = and i32 %13, 512
  %.not15 = icmp eq i32 %14, 0
  br i1 %.not15, label %15, label %18

15:                                               ; preds = %11
  %16 = load i32, ptr %10, align 8, !tbaa !26
  %17 = add nsw i32 %16, -1
  store i32 %17, ptr %10, align 8, !tbaa !26
  %.pre = load i32, ptr %12, align 8
  br label %18

18:                                               ; preds = %15, %11
  %19 = phi i32 [ %.pre, %15 ], [ %13, %11 ]
  %20 = and i32 %19, 1
  %.not16 = icmp eq i32 %20, 0
  br i1 %.not16, label %.loopexit, label %21, !llvm.loop !38

21:                                               ; preds = %18
  %22 = getelementptr inbounds nuw i8, ptr %12, i64 48
  %.020 = load ptr, ptr %22, align 8, !tbaa !29
  %.not1721 = icmp eq ptr %.020, null
  br i1 %.not1721, label %.loopexit, label %.lr.ph

.lr.ph:                                           ; preds = %21, %29
  %.022 = phi ptr [ %.0, %29 ], [ %.020, %21 ]
  %23 = load ptr, ptr %.022, align 8, !tbaa !31
  %24 = load i32, ptr %23, align 8
  %25 = and i32 %24, 320
  %or.cond = icmp eq i32 %25, 256
  br i1 %or.cond, label %26, label %29

26:                                               ; preds = %.lr.ph
  %27 = or disjoint i32 %24, 64
  store i32 %27, ptr %23, align 8
  %28 = load ptr, ptr %.022, align 8, !tbaa !31
  call void @prio_queue_put(ptr noundef nonnull %3, ptr noundef %28) #6
  br label %29

29:                                               ; preds = %.lr.ph, %26
  %30 = getelementptr inbounds nuw i8, ptr %.022, i64 8
  %.0 = load ptr, ptr %30, align 8, !tbaa !29
  %.not17 = icmp eq ptr %.0, null
  br i1 %.not17, label %.loopexit, label %.lr.ph, !llvm.loop !39

.loopexit:                                        ; preds = %29, %21, %18
  %31 = call ptr @prio_queue_get(ptr noundef nonnull %3) #6
  %.not14 = icmp eq ptr %31, null
  br i1 %.not14, label %._crit_edge, label %11

._crit_edge:                                      ; preds = %.loopexit, %6
  call void @clear_prio_queue(ptr noundef nonnull %3) #6
  br label %32

32:                                               ; preds = %2, %._crit_edge
  call void @llvm.lifetime.end.p0(i64 48, ptr nonnull %3) #6
  ret void
}